; ModuleID = '53/600.c'
source_filename = "53/600.c"
target datalayout = "e-m:e-p270:32:32-p271:32:32-p272:64:64-i64:64-f80:128-n8:16:32:64-S128"
target triple = "x86_64-pc-linux-gnu"

@.str = private unnamed_addr constant [3 x i8] c"%d\00", align 1
@.str.1 = private unnamed_addr constant [4 x i8] c",%d\00", align 1

; Function Attrs: noinline nounwind uwtable
define dso_local void @main() #0 {
  %1 = alloca [1000 x i32], align 16
  %2 = alloca i32*, align 8
  %3 = alloca i32, align 4
  %4 = alloca i32, align 4
  %5 = alloca i32*, align 8
  %6 = call i32 (i8*, ...) @__isoc99_scanf(i8* getelementptr inbounds ([3 x i8], [3 x i8]* @.str, i64 0, i64 0), i32* %4)
  store i32 0, i32* %3, align 4
  br label %7

7:                                                ; preds = %16, %0
  %8 = load i32, i32* %3, align 4
  %9 = load i32, i32* %4, align 4
  %10 = icmp slt i32 %8, %9
  br i1 %10, label %11, label %19

11:                                               ; preds = %7
  %12 = load i32, i32* %3, align 4
  %13 = sext i32 %12 to i64
  %14 = getelementptr inbounds [1000 x i32], [1000 x i32]* %1, i64 0, i64 %13
  %15 = call i32 (i8*, ...) @__isoc99_scanf(i8* getelementptr inbounds ([3 x i8], [3 x i8]* @.str, i64 0, i64 0), i32* %14)
  br label %16

16:                                               ; preds = %11
  %17 = load i32, i32* %3, align 4
  %18 = add nsw i32 %17, 1
  store i32 %18, i32* %3, align 4
  br label %7

19:                                               ; preds = %7
  %20 = getelementptr inbounds [1000 x i32], [1000 x i32]* %1, i64 0, i64 0
  %21 = load i32, i32* %20, align 16
  %22 = call i32 (i8*, ...) @printf(i8* getelementptr inbounds ([3 x i8], [3 x i8]* @.str, i64 0, i64 0), i32 %21)
  %23 = getelementptr inbounds [1000 x i32], [1000 x i32]* %1, i64 0, i64 0
  %24 = getelementptr inbounds i32, i32* %23, i64 1
  store i32* %24, i32** %2, align 8
  br label %25

25:                                               ; preds = %58, %19
  %26 = load i32*, i32** %2, align 8
  %27 = getelementptr inbounds [1000 x i32], [1000 x i32]* %1, i64 0, i64 0
  %28 = load i32, i32* %4, align 4
  %29 = sext i32 %28 to i64
  %30 = getelementptr inbounds i32, i32* %27, i64 %29
  %31 = icmp ult i32* %26, %30
  br i1 %31, label %32, label %61

32:                                               ; preds = %25
  %33 = getelementptr inbounds [1000 x i32], [1000 x i32]* %1, i64 0, i64 0
  store i32* %33, i32** %5, align 8
  br label %34

34:                                               ; preds = %46, %32
  %35 = load i32*, i32** %5, align 8
  %36 = load i32*, i32** %2, align 8
  %37 = icmp ult i32* %35, %36
  br i1 %37, label %38, label %49

38:                                               ; preds = %34
  %39 = load i32*, i32** %5, align 8
  %40 = load i32, i32* %39, align 4
  %41 = load i32*, i32** %2, align 8
  %42 = load i32, i32* %41, align 4
  %43 = icmp eq i32 %40, %42
  br i1 %43, label %44, label %45

44:                                               ; preds = %38
  br label %49

45:                                               ; preds = %38
  br label %46

46:                                               ; preds = %45
  %47 = load i32*, i32** %5, align 8
  %48 = getelementptr inbounds i32, i32* %47, i32 1
  store i32* %48, i32** %5, align 8
  br label %34

49:                                               ; preds = %44, %34
  %50 = load i32*, i32** %5, align 8
  %51 = load i32*, i32** %2, align 8
  %52 = icmp eq i32* %50, %51
  br i1 %52, label %53, label %57

53:                                               ; preds = %49
  %54 = load i32*, i32** %2, align 8
  %55 = load i32, i32* %54, align 4
  %56 = call i32 (i8*, ...) @printf(i8* getelementptr inbounds ([4 x i8], [4 x i8]* @.str.1, i64 0, i64 0), i32 %55)
  br label %57

57:                                               ; preds = %53, %49
  br label %58

58:                                               ; preds = %57
  %59 = load i32*, i32** %2, align 8
  %60 = getelementptr inbounds i32, i32* %59, i32 1
  store i32* %60, i32** %2, align 8
  br label %25

61:                                               ; preds = %25
  ret void
}

declare dso_local i32 @__isoc99_scanf(i8*, ...) #1

declare dso_local i32 @printf(i8*, ...) #1


!llvm.module.flags = !{!0}
!llvm.ident = !{!1}

!0 = !{i32 1, !"wchar_size", i32 4}
!1 = !{!"clang version 10.0.0-4ubuntu1 "}
